---
triple:          'x86_64-apple-darwin'
binary-path:     '/Users/erhanturker/Documents/git/Mathematical-Analyzer/Build/Products/Release/MathematicalAnalyzer'
relocations:
  - { offsetInCU: 0x631F, offset: 0x631F, size: 0x8, addend: 0x0, symName: __ZNSt3__142__uninitialized_allocator_move_if_noexceptB7v160006INS_9allocatorI5TokenEENS_16reverse_iteratorIPS2_EES6_S6_EET2_RT_T0_T1_S7_, symObjAddr: 0xF64, symBinAddr: 0x1000046C4, symSize: 0xB4 }
  - { offsetInCU: 0x6394, offset: 0x6394, size: 0x8, addend: 0x0, symName: __ZNSt3__142__uninitialized_allocator_move_if_noexceptB7v160006INS_9allocatorI5TokenEENS_16reverse_iteratorIPS2_EES6_S6_EET2_RT_T0_T1_S7_, symObjAddr: 0xF64, symBinAddr: 0x1000046C4, symSize: 0xB4 }
  - { offsetInCU: 0x70F5, offset: 0x70F5, size: 0x8, addend: 0x0, symName: __ZSt28__throw_bad_array_new_lengthB7v160006v, symObjAddr: 0xD3D, symBinAddr: 0x1000044DD, symSize: 0x31 }
  - { offsetInCU: 0x776C, offset: 0x776C, size: 0x8, addend: 0x0, symName: __ZNSt3__16vectorI5TokenNS_9allocatorIS1_EEE26__swap_out_circular_bufferERNS_14__split_bufferIS1_RS3_EE, symObjAddr: 0xEAA, symBinAddr: 0x10000464A, symSize: 0x7A }
  - { offsetInCU: 0xA8C6, offset: 0xA8C6, size: 0x8, addend: 0x0, symName: __ZN9Tokenizer8tokenizeEv, symObjAddr: 0x0, symBinAddr: 0x100003850, symSize: 0xBE0 }
  - { offsetInCU: 0xE919, offset: 0xE919, size: 0x8, addend: 0x0, symName: __ZNK9Tokenizer4peekEj, symObjAddr: 0xBE0, symBinAddr: 0x100004430, symSize: 0x32 }
  - { offsetInCU: 0xEAC9, offset: 0xEAC9, size: 0x8, addend: 0x0, symName: __ZNSt3__16vectorI5TokenNS_9allocatorIS1_EEE21__push_back_slow_pathIS1_EEvOT_, symObjAddr: 0xD6E, symBinAddr: 0x10000450E, symSize: 0x13C }
  - { offsetInCU: 0xF17E, offset: 0xF17E, size: 0x8, addend: 0x0, symName: __ZNSt3__16vectorI5TokenNS_9allocatorIS1_EEE9push_backB7v160006EOS1_, symObjAddr: 0xC12, symBinAddr: 0x100004462, symSize: 0x6E }
  - { offsetInCU: 0xFAE2, offset: 0xFAE2, size: 0x8, addend: 0x0, symName: __ZNSt3__114__split_bufferI5TokenRNS_9allocatorIS1_EEED2Ev, symObjAddr: 0x106E, symBinAddr: 0x1000047CE, symSize: 0x28 }
  - { offsetInCU: 0xFD34, offset: 0xFD34, size: 0x8, addend: 0x0, symName: __ZNSt3__128__exception_guard_exceptionsINS_29_AllocatorDestroyRangeReverseINS_9allocatorI5TokenEENS_16reverse_iteratorIPS3_EEEEED2B7v160006Ev, symObjAddr: 0x1018, symBinAddr: 0x100004778, symSize: 0x1A }
  - { offsetInCU: 0xFD6C, offset: 0xFD6C, size: 0x8, addend: 0x0, symName: __ZNKSt3__129_AllocatorDestroyRangeReverseINS_9allocatorI5TokenEENS_16reverse_iteratorIPS2_EEEclB7v160006Ev, symObjAddr: 0x1032, symBinAddr: 0x100004792, symSize: 0x3C }
  - { offsetInCU: 0x1022D, offset: 0x1022D, size: 0x8, addend: 0x0, symName: __ZNSt3__114__split_bufferI5TokenRNS_9allocatorIS1_EEE17__destruct_at_endB7v160006EPS1_, symObjAddr: 0x1096, symBinAddr: 0x1000047F6, symSize: 0x44 }
  - { offsetInCU: 0x10762, offset: 0x10762, size: 0x8, addend: 0x0, symName: __ZNSt3__16vectorI5TokenNS_9allocatorIS1_EEE16__destroy_vectorclB7v160006Ev, symObjAddr: 0x1170, symBinAddr: 0x100004840, symSize: 0x32 }
  - { offsetInCU: 0xA25E, offset: 0x1AC72, size: 0x8, addend: 0x0, symName: __ZNSt3__1neB7v160006INS_12basic_stringIcNS_11char_traitsIcEENS_9allocatorIcEEEES6_EENS_9enable_ifIX16is_convertible_vIDTneclsr3stdE7declvalIRKT_EEclsr3stdE7declvalIRKT0_EEEbEEbE4typeERKNS_8optionalIS8_EESD_, symObjAddr: 0x2308, symBinAddr: 0x100006B88, symSize: 0xA0 }
  - { offsetInCU: 0xA95C, offset: 0x1B370, size: 0x8, addend: 0x0, symName: __ZNSt3__130__uninitialized_allocator_copyB7v160006INS_9allocatorI5TokenEENS_11__wrap_iterIPS2_EES6_S5_EET2_RT_T0_T1_S7_, symObjAddr: 0x7FE8, symBinAddr: 0x10000C758, symSize: 0xA2 }
  - { offsetInCU: 0xAC67, offset: 0x1B67B, size: 0x8, addend: 0x0, symName: __ZNSt3__119__allocate_at_leastB7v160006INS_9allocatorI5TokenEEEENS_19__allocation_resultINS_16allocator_traitsIT_E7pointerEEERS6_m, symObjAddr: 0x7FB8, symBinAddr: 0x10000C728, symSize: 0x30 }
  - { offsetInCU: 0xAD07, offset: 0x1B71B, size: 0x8, addend: 0x0, symName: __ZNSt3__130__uninitialized_allocator_copyB7v160006INS_9allocatorI5TokenEENS_11__wrap_iterIPS2_EES6_S5_EET2_RT_T0_T1_S7_, symObjAddr: 0x7FE8, symBinAddr: 0x10000C758, symSize: 0xA2 }
  - { offsetInCU: 0xEDD5, offset: 0x1F7E9, size: 0x8, addend: 0x0, symName: __ZN6Parser5ParseENSt3__16vectorI5TokenNS0_9allocatorIS2_EEEEPN12functionNode4NodeE, symObjAddr: 0x0, symBinAddr: 0x100004880, symSize: 0xC60 }
  - { offsetInCU: 0x13500, offset: 0x23F14, size: 0x8, addend: 0x0, symName: __ZNSt3__120__optional_copy_baseINS_12basic_stringIcNS_11char_traitsIcEENS_9allocatorIcEEEELb0EEC2B7v160006ERKS7_, symObjAddr: 0x7D64, symBinAddr: 0x10000C5E4, symSize: 0x34 }
  - { offsetInCU: 0x135F8, offset: 0x2400C, size: 0x8, addend: 0x0, symName: __ZNSt3__16vectorI5TokenNS_9allocatorIS1_EEEC2INS_11__wrap_iterIPS1_EELi0EEET_S9_, symObjAddr: 0x7EC8, symBinAddr: 0x10000C678, symSize: 0x9E }
  - { offsetInCU: 0x138E2, offset: 0x242F6, size: 0x8, addend: 0x0, symName: __ZNSt3__16vectorI5TokenNS_9allocatorIS1_EEED2B7v160006Ev, symObjAddr: 0x8178, symBinAddr: 0x10000C818, symSize: 0x25 }
  - { offsetInCU: 0x1396D, offset: 0x24381, size: 0x8, addend: 0x0, symName: __ZNSt3__112basic_stringIcNS_11char_traitsIcEENS_9allocatorIcEEE25__init_copy_ctor_externalEPKcm, symObjAddr: 0x81D0, symBinAddr: 0x10000C840, symSize: 0x70 }
  - { offsetInCU: 0x13CE8, offset: 0x246FC, size: 0x8, addend: 0x0, symName: __ZN6Parser17isDefinedFunctionENSt3__112basic_stringIcNS0_11char_traitsIcEENS0_9allocatorIcEEEE, symObjAddr: 0xD58, symBinAddr: 0x1000055D8, symSize: 0xB2 }
  - { offsetInCU: 0x13E82, offset: 0x24896, size: 0x8, addend: 0x0, symName: __ZN6Parser17isDefinedVariableENSt3__112basic_stringIcNS0_11char_traitsIcEENS0_9allocatorIcEEEE, symObjAddr: 0xE0A, symBinAddr: 0x10000568A, symSize: 0xB2 }
  - { offsetInCU: 0x1401E, offset: 0x24A32, size: 0x8, addend: 0x0, symName: __ZN6Parser11resolveTreeEPN12functionNode4NodeE, symObjAddr: 0xEBC, symBinAddr: 0x10000573C, symSize: 0x144C }
  - { offsetInCU: 0x1AC51, offset: 0x2B665, size: 0x8, addend: 0x0, symName: __ZNKSt3__16vectorIPN12functionNode4NodeENS_9allocatorIS3_EEE20__throw_length_errorB7v160006Ev, symObjAddr: 0x7DD8, symBinAddr: 0x10000C658, symSize: 0x18 }
  - { offsetInCU: 0x1AC85, offset: 0x2B699, size: 0x8, addend: 0x0, symName: __ZNSt3__16vectorIPN12functionNode4NodeENS_9allocatorIS3_EEE9push_backB7v160006EOS3_, symObjAddr: 0xC60, symBinAddr: 0x1000054E0, symSize: 0xF8 }
  - { offsetInCU: 0x1BB1B, offset: 0x2C52F, size: 0x8, addend: 0x0, symName: __ZN6Parser13copyParseTreeEPN12functionNode4NodeE, symObjAddr: 0x23A8, symBinAddr: 0x100006C28, symSize: 0x224 }
  - { offsetInCU: 0x1C7D6, offset: 0x2D1EA, size: 0x8, addend: 0x0, symName: __ZNSt3__16vectorIPN12functionNode4NodeENS_9allocatorIS3_EEE6insertENS_11__wrap_iterIPKS3_EERS8_, symObjAddr: 0x26BC, symBinAddr: 0x100006F3C, symSize: 0x252 }
  - { offsetInCU: 0x1D359, offset: 0x2DD6D, size: 0x8, addend: 0x0, symName: __ZNSt3__16vectorIPN12functionNode4NodeENS_9allocatorIS3_EEE6insertENS_11__wrap_iterIPKS3_EEOS3_, symObjAddr: 0x290E, symBinAddr: 0x10000718E, symSize: 0x214 }
  - { offsetInCU: 0x1DE2C, offset: 0x2E840, size: 0x8, addend: 0x0, symName: __ZN6Parser15applyDerivativeEPN12functionNode4NodeE, symObjAddr: 0x2B60, symBinAddr: 0x1000073E0, symSize: 0x4FF4 }
  - { offsetInCU: 0x4208A, offset: 0x52A9E, size: 0x8, addend: 0x0, symName: __ZN12functionNode4NodeD1Ev, symObjAddr: 0x2B22, symBinAddr: 0x1000073A2, symSize: 0x3E }
  - { offsetInCU: 0x423C8, offset: 0x52DDC, size: 0x8, addend: 0x0, symName: __ZNSt3__16vectorIPN12functionNode4NodeENS_9allocatorIS3_EEE9push_backB7v160006ERKS3_, symObjAddr: 0x25CC, symBinAddr: 0x100006E4C, symSize: 0xF0 }
  - { offsetInCU: 0x428D0, offset: 0x532E4, size: 0x8, addend: 0x0, symName: __ZNSt3__16vectorIPN12functionNode4NodeENS_9allocatorIS3_EEE6insertENS_11__wrap_iterIPKS3_EERS8_, symObjAddr: 0x26BC, symBinAddr: 0x100006F3C, symSize: 0x252 }
  - { offsetInCU: 0x42989, offset: 0x5339D, size: 0x8, addend: 0x0, symName: __ZNSt3__16vectorIPN12functionNode4NodeENS_9allocatorIS3_EEEC2ERKS6_, symObjAddr: 0x8356, symBinAddr: 0x10000C9C6, symSize: 0x72 }
  - { offsetInCU: 0x42F56, offset: 0x5396A, size: 0x8, addend: 0x0, symName: __ZNSt3__114__split_bufferIPN12functionNode4NodeERNS_9allocatorIS3_EEE9push_backEOS3_, symObjAddr: 0x8250, symBinAddr: 0x10000C8C0, symSize: 0x106 }
  - { offsetInCU: 0x43701, offset: 0x54115, size: 0x8, addend: 0x0, symName: __ZN6Parser23changeEveryVariableWithEPN12functionNode4NodeES2_, symObjAddr: 0x7B54, symBinAddr: 0x10000C3D4, symSize: 0x196 }
  - { offsetInCU: 0x4408E, offset: 0x54AA2, size: 0x8, addend: 0x0, symName: __ZN6Parser10deleteTreeEPN12functionNode4NodeE, symObjAddr: 0x7CEA, symBinAddr: 0x10000C56A, symSize: 0x7A }
  - { offsetInCU: 0x44537, offset: 0x54F4B, size: 0x8, addend: 0x0, symName: __ZNSt3__123__optional_storage_baseINS_12basic_stringIcNS_11char_traitsIcEENS_9allocatorIcEEEELb0EE16__construct_fromB7v160006IRKNS_20__optional_copy_baseIS6_Lb0EEEEEvOT_, symObjAddr: 0x7D98, symBinAddr: 0x10000C618, symSize: 0x40 }
  - { offsetInCU: 0x44679, offset: 0x5508D, size: 0x8, addend: 0x0, symName: __ZNSt3__120__optional_copy_baseINS_12basic_stringIcNS_11char_traitsIcEENS_9allocatorIcEEEELb0EEC2B7v160006ERKS7_.cold.1, symObjAddr: 0x8401, symBinAddr: 0x10000F331, symSize: 0x15 }
  - { offsetInCU: 0x44A39, offset: 0x5544D, size: 0x8, addend: 0x0, symName: __ZNKSt3__16vectorI5TokenNS_9allocatorIS1_EEE20__throw_length_errorB7v160006Ev, symObjAddr: 0x7FA8, symBinAddr: 0x10000C718, symSize: 0x10 }
  - { offsetInCU: 0x44A85, offset: 0x55499, size: 0x8, addend: 0x0, symName: __ZNKSt3__16vectorI5TokenNS_9allocatorIS1_EEE20__throw_length_errorB7v160006Ev, symObjAddr: 0x7FA8, symBinAddr: 0x10000C718, symSize: 0x10 }
  - { offsetInCU: 0x44AAE, offset: 0x554C2, size: 0x8, addend: 0x0, symName: __ZNSt3__119__allocate_at_leastB7v160006INS_9allocatorI5TokenEEEENS_19__allocation_resultINS_16allocator_traitsIT_E7pointerEEERS6_m, symObjAddr: 0x7FB8, symBinAddr: 0x10000C728, symSize: 0x30 }
  - { offsetInCU: 0x44B9D, offset: 0x555B1, size: 0x8, addend: 0x0, symName: __ZNSt3__128__exception_guard_exceptionsINS_29_AllocatorDestroyRangeReverseINS_9allocatorI5TokenEEPS3_EEED2B7v160006Ev, symObjAddr: 0x808A, symBinAddr: 0x10000C7FA, symSize: 0x1A }
  - { offsetInCU: 0x452B4, offset: 0x55CC8, size: 0x8, addend: 0x0, symName: __ZNKSt3__112basic_stringIcNS_11char_traitsIcEENS_9allocatorIcEEE20__throw_length_errorB7v160006Ev, symObjAddr: 0x8240, symBinAddr: 0x10000C8B0, symSize: 0x10 }
  - { offsetInCU: 0x452DD, offset: 0x55CF1, size: 0x8, addend: 0x0, symName: __ZNSt3__114__split_bufferIPN12functionNode4NodeERNS_9allocatorIS3_EEE9push_backEOS3_, symObjAddr: 0x8250, symBinAddr: 0x10000C8C0, symSize: 0x106 }
  - { offsetInCU: 0x454AA, offset: 0x55EBE, size: 0x8, addend: 0x0, symName: __ZNSt3__16vectorIPN12functionNode4NodeENS_9allocatorIS3_EEE11__vallocateB7v160006Em, symObjAddr: 0x83C8, symBinAddr: 0x10000CA38, symSize: 0x39 }
  - { offsetInCU: 0x45525, offset: 0x55F39, size: 0x8, addend: 0x0, symName: __ZNSt3__120__optional_copy_baseINS_12basic_stringIcNS_11char_traitsIcEENS_9allocatorIcEEEELb0EEC2B7v160006ERKS7_.cold.1, symObjAddr: 0x8401, symBinAddr: 0x10000F331, symSize: 0x15 }
  - { offsetInCU: 0x13BBE, offset: 0x69B28, size: 0x8, addend: 0x0, symName: __ZNSt3__124__put_character_sequenceB7v160006IcNS_11char_traitsIcEEEERNS_13basic_ostreamIT_T0_EES7_PKS4_m, symObjAddr: 0x2204, symBinAddr: 0x10000E974, symSize: 0x150 }
  - { offsetInCU: 0x167E4, offset: 0x6C74E, size: 0x8, addend: 0x0, symName: __ZNSt3__17getlineB7v160006IcNS_11char_traitsIcEENS_9allocatorIcEEEERNS_13basic_istreamIT_T0_EES9_RNS_12basic_stringIS6_S7_T1_EES6_, symObjAddr: 0x20D3, symBinAddr: 0x10000E843, symSize: 0x131 }
  - { offsetInCU: 0x16ADE, offset: 0x6CA48, size: 0x8, addend: 0x0, symName: __ZNSt3__119__allocate_at_leastB7v160006INS_9allocatorI8FunctionEEEENS_19__allocation_resultINS_16allocator_traitsIT_E7pointerEEERS6_m, symObjAddr: 0x1CBA, symBinAddr: 0x10000E42A, symSize: 0x2E }
  - { offsetInCU: 0x16FFC, offset: 0x6CF66, size: 0x8, addend: 0x0, symName: __ZNSt3__119__allocate_at_leastB7v160006INS_9allocatorIdEEEENS_19__allocation_resultINS_16allocator_traitsIT_E7pointerEEERS5_m, symObjAddr: 0x1670, symBinAddr: 0x10000DFF0, symSize: 0x2E }
  - { offsetInCU: 0x1709C, offset: 0x6D006, size: 0x8, addend: 0x0, symName: __ZNSt3__16vectorI5TokenNS_9allocatorIS1_EEE6assignIPS1_Li0EEEvT_S7_, symObjAddr: 0x169E, symBinAddr: 0x10000E01E, symSize: 0x152 }
  - { offsetInCU: 0x1740B, offset: 0x6D375, size: 0x8, addend: 0x0, symName: __ZNSt3__119__allocate_at_leastB7v160006INS_9allocatorIPN12functionNode4NodeEEEEENS_19__allocation_resultINS_16allocator_traitsIT_E7pointerEEERS8_m, symObjAddr: 0x1BA2, symBinAddr: 0x10000E312, symSize: 0x2E }
  - { offsetInCU: 0x174AB, offset: 0x6D415, size: 0x8, addend: 0x0, symName: __ZNSt3__16vectorI8FunctionNS_9allocatorIS1_EEE26__swap_out_circular_bufferERNS_14__split_bufferIS1_RS3_EE, symObjAddr: 0x1BD0, symBinAddr: 0x10000E340, symSize: 0xDA }
  - { offsetInCU: 0x177BC, offset: 0x6D726, size: 0x8, addend: 0x0, symName: __ZNSt3__120__throw_length_errorB7v160006EPKc, symObjAddr: 0x11EC, symBinAddr: 0x10000DBEC, symSize: 0x4C }
  - { offsetInCU: 0x178B4, offset: 0x6D81E, size: 0x8, addend: 0x0, symName: __ZNSt3__119__allocate_at_leastB7v160006INS_9allocatorINS_12basic_stringIcNS_11char_traitsIcEENS1_IcEEEEEEEENS_19__allocation_resultINS_16allocator_traitsIT_E7pointerEEERSA_m, symObjAddr: 0x1572, symBinAddr: 0x10000DEF2, symSize: 0x38 }
  - { offsetInCU: 0x17954, offset: 0x6D8BE, size: 0x8, addend: 0x0, symName: __ZNSt3__128__exception_guard_exceptionsINS_29_AllocatorDestroyRangeReverseINS_9allocatorINS_12basic_stringIcNS_11char_traitsIcEENS2_IcEEEEEENS_16reverse_iteratorIPS7_EEEEED2B7v160006Ev, symObjAddr: 0x15AA, symBinAddr: 0x10000DF2A, symSize: 0x1A }
  - { offsetInCU: 0x1810C, offset: 0x6E076, size: 0x8, addend: 0x0, symName: __ZNSt3__121__unwrap_and_dispatchB7v160006INS_10__overloadINS_11__copy_loopINS_17_ClassicAlgPolicyEEENS_14__copy_trivialEEEP5TokenS8_S8_Li0EEENS_4pairIT0_T2_EESA_T1_SB_, symObjAddr: 0x1866, symBinAddr: 0x10000E1E6, symSize: 0x5E }
  - { offsetInCU: 0x187E5, offset: 0x6E74F, size: 0x8, addend: 0x0, symName: __ZNSt3__116__pad_and_outputB7v160006IcNS_11char_traitsIcEEEENS_19ostreambuf_iteratorIT_T0_EES6_PKS4_S8_S8_RNS_8ios_baseES4_, symObjAddr: 0x2354, symBinAddr: 0x10000EAC4, symSize: 0x10C }
  - { offsetInCU: 0x19BF4, offset: 0x6FB5E, size: 0x8, addend: 0x0, symName: __ZNSt3__16vectorINS_12basic_stringIcNS_11char_traitsIcEENS_9allocatorIcEEEENS4_IS6_EEE26__swap_out_circular_bufferERNS_14__split_bufferIS6_RS7_EE, symObjAddr: 0x1490, symBinAddr: 0x10000DE10, symSize: 0xD2 }
  - { offsetInCU: 0x1A3DA, offset: 0x70344, size: 0x8, addend: 0x0, symName: __ZNSt3__16vectorI8FunctionNS_9allocatorIS1_EEE26__swap_out_circular_bufferERNS_14__split_bufferIS1_RS3_EE, symObjAddr: 0x1BD0, symBinAddr: 0x10000E340, symSize: 0xDA }
  - { offsetInCU: 0x1D86C, offset: 0x737D6, size: 0x8, addend: 0x0, symName: _main, symObjAddr: 0x0, symBinAddr: 0x10000CA80, symSize: 0xDB0 }
  - { offsetInCU: 0x21569, offset: 0x774D3, size: 0x8, addend: 0x0, symName: __ZN6Parser11addVariableENSt3__112basic_stringIcNS0_11char_traitsIcEENS0_9allocatorIcEEEEd, symObjAddr: 0xDB0, symBinAddr: 0x10000D830, symSize: 0x118 }
  - { offsetInCU: 0x219FE, offset: 0x77968, size: 0x8, addend: 0x0, symName: __ZN6Parser5parseENSt3__16vectorI5TokenNS0_9allocatorIS2_EEEE, symObjAddr: 0xEC8, symBinAddr: 0x10000D948, symSize: 0xB6 }
  - { offsetInCU: 0x21F51, offset: 0x77EBB, size: 0x8, addend: 0x0, symName: __ZN6Parser11addFunctionENSt3__112basic_stringIcNS0_11char_traitsIcEENS0_9allocatorIcEEEEPN12functionNode4NodeE, symObjAddr: 0xF7E, symBinAddr: 0x10000D9FE, symSize: 0x108 }
  - { offsetInCU: 0x2248A, offset: 0x783F4, size: 0x8, addend: 0x0, symName: __ZN4LineD1Ev, symObjAddr: 0x1086, symBinAddr: 0x10000DB06, symSize: 0x2E }
  - { offsetInCU: 0x2249C, offset: 0x78406, size: 0x8, addend: 0x0, symName: __ZNSt3__114__split_bufferI8FunctionRNS_9allocatorIS1_EEED2Ev, symObjAddr: 0x1D38, symBinAddr: 0x10000E4A8, symSize: 0x28 }
  - { offsetInCU: 0x2257D, offset: 0x784E7, size: 0x8, addend: 0x0, symName: __ZNSt3__16vectorI8FunctionNS_9allocatorIS1_EEED2B7v160006Ev, symObjAddr: 0x1D9E, symBinAddr: 0x10000E50E, symSize: 0x26 }
  - { offsetInCU: 0x22608, offset: 0x78572, size: 0x8, addend: 0x0, symName: __ZNSt3__16vectorINS_12basic_stringIcNS_11char_traitsIcEENS_9allocatorIcEEEENS4_IS6_EEED2B7v160006Ev, symObjAddr: 0x1E3A, symBinAddr: 0x10000E5AA, symSize: 0x26 }
  - { offsetInCU: 0x22693, offset: 0x785FD, size: 0x8, addend: 0x0, symName: __ZNKSt3__16vectorI8FunctionNS_9allocatorIS1_EEE20__throw_length_errorB7v160006Ev, symObjAddr: 0x1CAA, symBinAddr: 0x10000E41A, symSize: 0x10 }
  - { offsetInCU: 0x226BD, offset: 0x78627, size: 0x8, addend: 0x0, symName: __ZNSt3__119__allocate_at_leastB7v160006INS_9allocatorI8FunctionEEEENS_19__allocation_resultINS_16allocator_traitsIT_E7pointerEEERS6_m, symObjAddr: 0x1CBA, symBinAddr: 0x10000E42A, symSize: 0x2E }
  - { offsetInCU: 0x226C7, offset: 0x78631, size: 0x8, addend: 0x0, symName: __ZN4LineD1Ev, symObjAddr: 0x1086, symBinAddr: 0x10000DB06, symSize: 0x2E }
  - { offsetInCU: 0x22837, offset: 0x787A1, size: 0x8, addend: 0x0, symName: __ZN6ParserD1Ev, symObjAddr: 0x10B4, symBinAddr: 0x10000DB34, symSize: 0x52 }
  - { offsetInCU: 0x22B81, offset: 0x78AEB, size: 0x8, addend: 0x0, symName: __ZNSt3__113basic_fstreamIcNS_11char_traitsIcEEED1Ev, symObjAddr: 0x1106, symBinAddr: 0x10000DB86, symSize: 0x5A }
  - { offsetInCU: 0x22F33, offset: 0x78E9D, size: 0x8, addend: 0x0, symName: __ZNSt3__16vectorINS_12basic_stringIcNS_11char_traitsIcEENS_9allocatorIcEEEENS4_IS6_EEE22__construct_one_at_endB7v160006IJRKS6_EEEvDpOT_, symObjAddr: 0x132E, symBinAddr: 0x10000DCAE, symSize: 0x4E }
  - { offsetInCU: 0x23110, offset: 0x7907A, size: 0x8, addend: 0x0, symName: __ZNSt3__16vectorINS_12basic_stringIcNS_11char_traitsIcEENS_9allocatorIcEEEENS4_IS6_EEE21__push_back_slow_pathIRKS6_EEvOT_, symObjAddr: 0x137C, symBinAddr: 0x10000DCFC, symSize: 0x114 }
  - { offsetInCU: 0x23455, offset: 0x793BF, size: 0x8, addend: 0x0, symName: __ZNKSt3__16vectorIdNS_9allocatorIdEEE20__throw_length_errorB7v160006Ev, symObjAddr: 0x1660, symBinAddr: 0x10000DFE0, symSize: 0x10 }
  - { offsetInCU: 0x2347F, offset: 0x793E9, size: 0x8, addend: 0x0, symName: __ZNSt3__119__allocate_at_leastB7v160006INS_9allocatorIdEEEENS_19__allocation_resultINS_16allocator_traitsIT_E7pointerEEERS5_m, symObjAddr: 0x1670, symBinAddr: 0x10000DFF0, symSize: 0x2E }
  - { offsetInCU: 0x23965, offset: 0x798CF, size: 0x8, addend: 0x0, symName: __ZNSt3__16vectorI5TokenNS_9allocatorIS1_EEE6assignIPS1_Li0EEEvT_S7_, symObjAddr: 0x169E, symBinAddr: 0x10000E01E, symSize: 0x152 }
  - { offsetInCU: 0x2427B, offset: 0x7A1E5, size: 0x8, addend: 0x0, symName: __ZNSt3__119__allocate_at_leastB7v160006INS_9allocatorIPN12functionNode4NodeEEEEENS_19__allocation_resultINS_16allocator_traitsIT_E7pointerEEERS8_m, symObjAddr: 0x1BA2, symBinAddr: 0x10000E312, symSize: 0x2E }
  - { offsetInCU: 0x24412, offset: 0x7A37C, size: 0x8, addend: 0x0, symName: __ZNSt3__120__throw_length_errorB7v160006EPKc, symObjAddr: 0x11EC, symBinAddr: 0x10000DBEC, symSize: 0x4C }
  - { offsetInCU: 0x2441C, offset: 0x7A386, size: 0x8, addend: 0x0, symName: __ZNSt12length_errorC1B7v160006EPKc, symObjAddr: 0x1238, symBinAddr: 0x10000DC38, symSize: 0x23 }
  - { offsetInCU: 0x2460B, offset: 0x7A575, size: 0x8, addend: 0x0, symName: __ZNSt3__16vectorI5TokenNS_9allocatorIS1_EEE22__base_destruct_at_endB7v160006EPS1_, symObjAddr: 0x12E4, symBinAddr: 0x10000DC64, symSize: 0x4A }
  - { offsetInCU: 0x24D11, offset: 0x7AC7B, size: 0x8, addend: 0x0, symName: __ZNSt3__114__split_bufferINS_12basic_stringIcNS_11char_traitsIcEENS_9allocatorIcEEEERNS4_IS6_EEED2Ev, symObjAddr: 0x15FA, symBinAddr: 0x10000DF7A, symSize: 0x28 }
  - { offsetInCU: 0x24DF2, offset: 0x7AD5C, size: 0x8, addend: 0x0, symName: __ZNKSt3__16vectorINS_12basic_stringIcNS_11char_traitsIcEENS_9allocatorIcEEEENS4_IS6_EEE20__throw_length_errorB7v160006Ev, symObjAddr: 0x1562, symBinAddr: 0x10000DEE2, symSize: 0x10 }
  - { offsetInCU: 0x24E1C, offset: 0x7AD86, size: 0x8, addend: 0x0, symName: __ZNSt3__119__allocate_at_leastB7v160006INS_9allocatorINS_12basic_stringIcNS_11char_traitsIcEENS1_IcEEEEEEEENS_19__allocation_resultINS_16allocator_traitsIT_E7pointerEEERSA_m, symObjAddr: 0x1572, symBinAddr: 0x10000DEF2, symSize: 0x38 }
  - { offsetInCU: 0x24F34, offset: 0x7AE9E, size: 0x8, addend: 0x0, symName: __ZNSt3__128__exception_guard_exceptionsINS_29_AllocatorDestroyRangeReverseINS_9allocatorINS_12basic_stringIcNS_11char_traitsIcEENS2_IcEEEEEENS_16reverse_iteratorIPS7_EEEEED2B7v160006Ev, symObjAddr: 0x15AA, symBinAddr: 0x10000DF2A, symSize: 0x1A }
  - { offsetInCU: 0x24F92, offset: 0x7AEFC, size: 0x8, addend: 0x0, symName: __ZNKSt3__129_AllocatorDestroyRangeReverseINS_9allocatorINS_12basic_stringIcNS_11char_traitsIcEENS1_IcEEEEEENS_16reverse_iteratorIPS6_EEEclB7v160006Ev, symObjAddr: 0x15C4, symBinAddr: 0x10000DF44, symSize: 0x36 }
  - { offsetInCU: 0x2526A, offset: 0x7B1D4, size: 0x8, addend: 0x0, symName: __ZNSt3__114__split_bufferINS_12basic_stringIcNS_11char_traitsIcEENS_9allocatorIcEEEERNS4_IS6_EEE17__destruct_at_endB7v160006EPS6_, symObjAddr: 0x1622, symBinAddr: 0x10000DFA2, symSize: 0x3E }
  - { offsetInCU: 0x2565E, offset: 0x7B5C8, size: 0x8, addend: 0x0, symName: __ZNSt3__16vectorI5TokenNS_9allocatorIS1_EEE13__vdeallocateEv, symObjAddr: 0x17F0, symBinAddr: 0x10000E170, symSize: 0x34 }
  - { offsetInCU: 0x25790, offset: 0x7B6FA, size: 0x8, addend: 0x0, symName: __ZNSt3__16vectorI5TokenNS_9allocatorIS1_EEE11__vallocateB7v160006Em, symObjAddr: 0x1824, symBinAddr: 0x10000E1A4, symSize: 0x42 }
  - { offsetInCU: 0x2580B, offset: 0x7B775, size: 0x8, addend: 0x0, symName: __ZNSt3__121__unwrap_and_dispatchB7v160006INS_10__overloadINS_11__copy_loopINS_17_ClassicAlgPolicyEEENS_14__copy_trivialEEEP5TokenS8_S8_Li0EEENS_4pairIT0_T2_EESA_T1_SB_, symObjAddr: 0x1866, symBinAddr: 0x10000E1E6, symSize: 0x5E }
  - { offsetInCU: 0x2595A, offset: 0x7B8C4, size: 0x8, addend: 0x0, symName: __ZNSt3__123__optional_storage_baseINS_12basic_stringIcNS_11char_traitsIcEENS_9allocatorIcEEEELb0EE13__assign_fromB7v160006IRKNS_27__optional_copy_assign_baseIS6_Lb0EEEEEvOT_, symObjAddr: 0x18C4, symBinAddr: 0x10000E244, symSize: 0x6B }
  - { offsetInCU: 0x25F1B, offset: 0x7BE85, size: 0x8, addend: 0x0, symName: __ZNSt3__120__optional_copy_baseINS_12basic_stringIcNS_11char_traitsIcEENS_9allocatorIcEEEELb0EEC2B7v160006ERKS7_.cold.1, symObjAddr: 0x24D8, symBinAddr: 0x10000F348, symSize: 0x15 }
  - { offsetInCU: 0x26066, offset: 0x7BFD0, size: 0x8, addend: 0x0, symName: __ZNKSt3__129_AllocatorDestroyRangeReverseINS_9allocatorI5TokenEEPS2_EclB7v160006Ev, symObjAddr: 0x1A60, symBinAddr: 0x10000E2B0, symSize: 0x3E }
  - { offsetInCU: 0x264F1, offset: 0x7C45B, size: 0x8, addend: 0x0, symName: __ZNSt3__128__exception_guard_exceptionsINS_6vectorI5TokenNS_9allocatorIS2_EEE16__destroy_vectorEED2B7v160006Ev, symObjAddr: 0x1B78, symBinAddr: 0x10000E2F8, symSize: 0x1A }
  - { offsetInCU: 0x2660E, offset: 0x7C578, size: 0x8, addend: 0x0, symName: __ZNSt3__128__exception_guard_exceptionsINS_29_AllocatorDestroyRangeReverseINS_9allocatorI8FunctionEENS_16reverse_iteratorIPS3_EEEEED2B7v160006Ev, symObjAddr: 0x1CE8, symBinAddr: 0x10000E458, symSize: 0x1A }
  - { offsetInCU: 0x2666C, offset: 0x7C5D6, size: 0x8, addend: 0x0, symName: __ZNKSt3__129_AllocatorDestroyRangeReverseINS_9allocatorI8FunctionEENS_16reverse_iteratorIPS2_EEEclB7v160006Ev, symObjAddr: 0x1D02, symBinAddr: 0x10000E472, symSize: 0x36 }
  - { offsetInCU: 0x26919, offset: 0x7C883, size: 0x8, addend: 0x0, symName: __ZNSt3__114__split_bufferI8FunctionRNS_9allocatorIS1_EEE17__destruct_at_endB7v160006EPS1_, symObjAddr: 0x1D60, symBinAddr: 0x10000E4D0, symSize: 0x3E }
  - { offsetInCU: 0x26B88, offset: 0x7CAF2, size: 0x8, addend: 0x0, symName: __ZNSt3__16vectorI8FunctionNS_9allocatorIS1_EEE16__destroy_vectorclB7v160006Ev, symObjAddr: 0x1DC4, symBinAddr: 0x10000E534, symSize: 0x32 }
  - { offsetInCU: 0x26CAB, offset: 0x7CC15, size: 0x8, addend: 0x0, symName: __ZNSt3__16vectorI8FunctionNS_9allocatorIS1_EEE22__base_destruct_at_endB7v160006EPS1_, symObjAddr: 0x1DF6, symBinAddr: 0x10000E566, symSize: 0x44 }
  - { offsetInCU: 0x26EFE, offset: 0x7CE68, size: 0x8, addend: 0x0, symName: __ZNSt3__16vectorINS_12basic_stringIcNS_11char_traitsIcEENS_9allocatorIcEEEENS4_IS6_EEE16__destroy_vectorclB7v160006Ev, symObjAddr: 0x1E60, symBinAddr: 0x10000E5D0, symSize: 0x32 }
  - { offsetInCU: 0x27021, offset: 0x7CF8B, size: 0x8, addend: 0x0, symName: __ZNSt3__16vectorINS_12basic_stringIcNS_11char_traitsIcEENS_9allocatorIcEEEENS4_IS6_EEE22__base_destruct_at_endB7v160006EPS6_, symObjAddr: 0x1E92, symBinAddr: 0x10000E602, symSize: 0x44 }
  - { offsetInCU: 0x271DF, offset: 0x7D149, size: 0x8, addend: 0x0, symName: __ZThn16_NSt3__113basic_fstreamIcNS_11char_traitsIcEEED1Ev, symObjAddr: 0x1ED6, symBinAddr: 0x10000E646, symSize: 0x5C }
  - { offsetInCU: 0x27239, offset: 0x7D1A3, size: 0x8, addend: 0x0, symName: __ZTv0_n24_NSt3__113basic_fstreamIcNS_11char_traitsIcEEED1Ev, symObjAddr: 0x1F32, symBinAddr: 0x10000E6A2, symSize: 0x6A }
  - { offsetInCU: 0x27293, offset: 0x7D1FD, size: 0x8, addend: 0x0, symName: __ZNSt3__113basic_fstreamIcNS_11char_traitsIcEEED0Ev, symObjAddr: 0x1F9C, symBinAddr: 0x10000E70C, symSize: 0x62 }
  - { offsetInCU: 0x27316, offset: 0x7D280, size: 0x8, addend: 0x0, symName: __ZThn16_NSt3__113basic_fstreamIcNS_11char_traitsIcEEED0Ev, symObjAddr: 0x1FFE, symBinAddr: 0x10000E76E, symSize: 0x64 }
  - { offsetInCU: 0x2738C, offset: 0x7D2F6, size: 0x8, addend: 0x0, symName: __ZTv0_n24_NSt3__113basic_fstreamIcNS_11char_traitsIcEEED0Ev, symObjAddr: 0x2062, symBinAddr: 0x10000E7D2, symSize: 0x71 }
  - { offsetInCU: 0x276AE, offset: 0x7D618, size: 0x8, addend: 0x0, symName: __ZNSt3__112basic_stringIcNS_11char_traitsIcEENS_9allocatorIcEEEC2B7v160006Emc, symObjAddr: 0x2460, symBinAddr: 0x10000EBD0, symSize: 0x78 }
  - { offsetInCU: 0x27927, offset: 0x7D891, size: 0x8, addend: 0x0, symName: __ZNSt3__120__optional_copy_baseINS_12basic_stringIcNS_11char_traitsIcEENS_9allocatorIcEEEELb0EEC2B7v160006ERKS7_.cold.1, symObjAddr: 0x24D8, symBinAddr: 0x10000F348, symSize: 0x15 }
  - { offsetInCU: 0x26, offset: 0x7D94A, size: 0x8, addend: 0x0, symName: __ZN8Function3funEPN12functionNode4NodeEd, symObjAddr: 0x0, symBinAddr: 0x10000EC48, symSize: 0x274 }
  - { offsetInCU: 0x3BCD, offset: 0x814F1, size: 0x8, addend: 0x0, symName: __ZNSt3__127__throw_bad_optional_accessB7v160006Ev, symObjAddr: 0x274, symBinAddr: 0x10000EEBC, symSize: 0x32 }
  - { offsetInCU: 0x5E87, offset: 0x837AB, size: 0x8, addend: 0x0, symName: __ZN8Function3funEPN12functionNode4NodeEd, symObjAddr: 0x0, symBinAddr: 0x10000EC48, symSize: 0x274 }
  - { offsetInCU: 0x4623, offset: 0x882AC, size: 0x8, addend: 0x0, symName: __ZNSt3__130__uninitialized_allocator_copyB7v160006INS_9allocatorI5TokenEEPS2_S4_S4_EET2_RT_T0_T1_S5_, symObjAddr: 0x548, symBinAddr: 0x10000F288, symSize: 0xA2 }
  - { offsetInCU: 0x4972, offset: 0x885FB, size: 0x8, addend: 0x0, symName: __ZNSt3__130__uninitialized_allocator_copyB7v160006INS_9allocatorI5TokenEEPS2_S4_S4_EET2_RT_T0_T1_S5_, symObjAddr: 0x548, symBinAddr: 0x10000F288, symSize: 0xA2 }
  - { offsetInCU: 0x7154, offset: 0x8ADDD, size: 0x8, addend: 0x0, symName: __ZN4LineC2ENSt3__112basic_stringIcNS0_11char_traitsIcEENS0_9allocatorIcEEEENS0_6vectorI5TokenNS4_IS8_EEEE, symObjAddr: 0x0, symBinAddr: 0x10000EEF0, symSize: 0x1A2 }
  - { offsetInCU: 0x77D7, offset: 0x8B460, size: 0x8, addend: 0x0, symName: __ZNSt3__16vectorI5TokenNS_9allocatorIS1_EEEC2ERKS4_, symObjAddr: 0x42C, symBinAddr: 0x10000F1EC, symSize: 0x9A }
  - { offsetInCU: 0x7A89, offset: 0x8B712, size: 0x8, addend: 0x0, symName: __ZN4LineC1ENSt3__112basic_stringIcNS0_11char_traitsIcEENS0_9allocatorIcEEEENS0_6vectorI5TokenNS4_IS8_EEEE, symObjAddr: 0x1A2, symBinAddr: 0x10000F092, symSize: 0xA }
  - { offsetInCU: 0x7AF6, offset: 0x8B77F, size: 0x8, addend: 0x0, symName: __ZN4Line11getLineTypeEv, symObjAddr: 0x1AC, symBinAddr: 0x10000F09C, symSize: 0xA }
  - { offsetInCU: 0x7B97, offset: 0x8B820, size: 0x8, addend: 0x0, symName: __ZN4Line9getFunDefEv, symObjAddr: 0x1B6, symBinAddr: 0x10000F0A6, symSize: 0x46 }
  - { offsetInCU: 0x7C8F, offset: 0x8B918, size: 0x8, addend: 0x0, symName: __ZN4Line10getFunNameEv, symObjAddr: 0x1FC, symBinAddr: 0x10000F0EC, symSize: 0x4C }
  - { offsetInCU: 0x7DA0, offset: 0x8BA29, size: 0x8, addend: 0x0, symName: __ZN4Line9getFunValEv, symObjAddr: 0x248, symBinAddr: 0x10000F138, symSize: 0x22 }
  - { offsetInCU: 0x7E39, offset: 0x8BAC2, size: 0x8, addend: 0x0, symName: __ZN4Line10getVarNameEv, symObjAddr: 0x26A, symBinAddr: 0x10000F15A, symSize: 0x4C }
  - { offsetInCU: 0x7E49, offset: 0x8BAD2, size: 0x8, addend: 0x0, symName: __ZN4Line10getVarNameEv, symObjAddr: 0x26A, symBinAddr: 0x10000F15A, symSize: 0x4C }
  - { offsetInCU: 0x7F5A, offset: 0x8BBE3, size: 0x8, addend: 0x0, symName: __ZN4Line9getVarValEv, symObjAddr: 0x2B6, symBinAddr: 0x10000F1A6, symSize: 0x46 }
  - { offsetInCU: 0x881F, offset: 0x8C4A8, size: 0x8, addend: 0x0, symName: __ZNSt3__120__optional_copy_baseINS_12basic_stringIcNS_11char_traitsIcEENS_9allocatorIcEEEELb0EEC2B7v160006ERKS7_.cold.1, symObjAddr: 0x7A3, symBinAddr: 0x10000F363, symSize: 0x15 }
...
